target datalayout = "e-m:e-p270:32:32-p271:32:32-p272:64:64-i64:64-i128:128-f80:128-n8:16:32:64-S128"
target triple = "x86_64-pc-linux-gnu"

%struct.tvbuff = type { ptr, ptr, i8, i32, ptr, ptr, i32, i32, i32, i32 }
%struct.tvb_subset = type { %struct.tvbuff, %struct.tvb_backing_t }
%struct.tvb_backing_t = type { ptr, i32, i32 }

; Function Attrs: null_pointer_is_valid sspstrong uwtable
define internal i32 @subset_pbrk_uint8(ptr noundef %0, i32 noundef %1, i32 noundef %2, ptr noundef %3, ptr noundef %4) #0 {
  %6 = alloca i32, align 4
  %7 = alloca ptr, align 8
  %8 = alloca i32, align 4
  %9 = alloca i32, align 4
  %10 = alloca ptr, align 8
  %11 = alloca ptr, align 8
  %12 = alloca ptr, align 8
  %13 = alloca i32, align 4
  %14 = alloca i32, align 4
  store ptr %0, ptr %7, align 8
  store i32 %1, ptr %8, align 4
  store i32 %2, ptr %9, align 4
  store ptr %3, ptr %10, align 8
  store ptr %4, ptr %11, align 8
  call void @llvm.lifetime.start.p0(i64 8, ptr %12) #4
  %15 = load ptr, ptr %7, align 8
  store ptr %15, ptr %12, align 8
  call void @llvm.lifetime.start.p0(i64 4, ptr %13) #4
  %16 = load ptr, ptr %12, align 8
  %17 = getelementptr inbounds nuw %struct.tvb_subset, ptr %16, i32 0, i32 1
  %18 = getelementptr inbounds nuw %struct.tvb_backing_t, ptr %17, i32 0, i32 0
  %19 = load ptr, ptr %18, align 8
  %20 = load ptr, ptr %12, align 8
  %21 = getelementptr inbounds nuw %struct.tvb_subset, ptr %20, i32 0, i32 1
  %22 = getelementptr inbounds nuw %struct.tvb_backing_t, ptr %21, i32 0, i32 1
  %23 = load i32, ptr %22, align 8
  %24 = load i32, ptr %8, align 4
  %25 = add i32 %23, %24
  %26 = load i32, ptr %9, align 4
  %27 = load ptr, ptr %10, align 8
  %28 = load ptr, ptr %11, align 8
  %29 = call i32 @tvb_ws_mempbrk_pattern_uint8(ptr noundef %19, i32 noundef %25, i32 noundef %26, ptr noundef %27, ptr noundef %28)
  store i32 %29, ptr %13, align 4
  %30 = load i32, ptr %13, align 4
  %31 = icmp eq i32 %30, -1
  br i1 %31, label %32, label %34

32:                                               ; preds = %5
  %33 = load i32, ptr %13, align 4
  store i32 %33, ptr %6, align 4
  store i32 1, ptr %14, align 4
  br label %41

34:                                               ; preds = %5
  %35 = load i32, ptr %13, align 4
  %36 = load ptr, ptr %12, align 8
  %37 = getelementptr inbounds nuw %struct.tvb_subset, ptr %36, i32 0, i32 1
  %38 = getelementptr inbounds nuw %struct.tvb_backing_t, ptr %37, i32 0, i32 1
  %39 = load i32, ptr %38, align 8
  %40 = sub i32 %35, %39
  store i32 %40, ptr %6, align 4
  store i32 1, ptr %14, align 4
  br label %41

41:                                               ; preds = %34, %32
  call void @llvm.lifetime.end.p0(i64 4, ptr %13) #4
  call void @llvm.lifetime.end.p0(i64 8, ptr %12) #4
  %42 = load i32, ptr %6, align 4
  ret i32 %42
}