; Function Attrs: null_pointer_is_valid sspstrong uwtable
define internal i32 @subset_pbrk_uint8(ptr noundef readonly captures(none) %0, i32 noundef %1, i32 noundef %2, ptr noundef %3, ptr noundef %4) #0 {
  %6 = getelementptr inbounds nuw i8, ptr %0, i64 56
  %7 = load ptr, ptr %6, align 8
  %8 = getelementptr inbounds nuw i8, ptr %0, i64 64
  %9 = load i32, ptr %8, align 8
  %10 = add i32 %9, %1
  %11 = tail call i32 @tvb_ws_mempbrk_pattern_uint8(ptr noundef %7, i32 noundef %10, i32 noundef %2, ptr noundef %3, ptr noundef %4)
  %12 = icmp eq i32 %11, -1
  br i1 %12, label %16, label %13

13:                                               ; preds = %5
  %14 = load i32, ptr %8, align 8
  %15 = sub i32 %11, %14
  br label %16

16:                                               ; preds = %5, %13
  %.0 = phi i32 [ %15, %13 ], [ -1, %5 ]
  ret i32 %.0
}